target datalayout = "e-m:e-p270:32:32-p271:32:32-p272:64:64-i64:64-i128:128-f80:128-n8:16:32:64-S128"
target triple = "x86_64-pc-linux-gnu"

%struct.AVChannelLayout = type { i32, i32, %union.anon, ptr }
%union.anon = type { i64 }
%struct.AACDecContext = type { ptr, ptr, %struct.AACDecDSP, %struct.AACDecProc, ptr, i32, %struct.DynamicRangeControl, [4 x [64 x ptr]], [4 x [64 x ptr]], i32, i32, [8 x i8], %union.anon.0, %union.anon.1, ptr, ptr, ptr, ptr, ptr, ptr, ptr, ptr, ptr, ptr, ptr, ptr, ptr, ptr, ptr, ptr, ptr, ptr, %union.anon.2, i32, [64 x ptr], i32, i32, i32, [2 x %struct.OutputConfiguration], i32, i32, i32, i32, i32, i32, [8 x i8] }
%struct.AACDecDSP = type { ptr, ptr, ptr, ptr, ptr, ptr, ptr, ptr, ptr, ptr, ptr, ptr, ptr, ptr, ptr }
%struct.AACDecProc = type { ptr, ptr, ptr, ptr, ptr, ptr }
%struct.DynamicRangeControl = type { i32, [17 x i32], [17 x i32], [64 x i32], i32, i32, [17 x i32], i32 }
%union.anon.0 = type { [1024 x i32] }
%union.anon.1 = type { [128 x i32] }
%union.anon.2 = type { ptr }
%struct.OutputConfiguration = type { %struct.MPEG4AudioConfig, [256 x [3 x i8]], i32, %struct.AVChannelLayout, i32, %struct.AACUSACConfig }
%struct.MPEG4AudioConfig = type { i32, i32, i32, i32, i32, i32, i32, i32, i32, i32, i32, i32 }
%struct.AACUSACConfig = type { i8, i16, i16, [64 x %struct.AACUsacElemConfig], i32, %struct.anon.6 }
%struct.AACUsacElemConfig = type { i32, i8, i8, %struct.anon, %struct.anon.4, %struct.anon.5 }
%struct.anon = type { i32, i8, %struct.anon.3 }
%struct.anon.3 = type { i8, i8, i8, i8, i8, i8, i8, i8 }
%struct.anon.4 = type { i8, i8, i8, i8, i8, i8, i8, i8, i8 }
%struct.anon.5 = type { i32, i8, i32, i32, ptr }
%struct.anon.6 = type { i8, i8, [64 x %struct.AACUSACLoudnessInfo], i8, i8, [64 x %struct.AACUSACLoudnessInfo] }
%struct.AACUSACLoudnessInfo = type <{ i16, %struct.anon.7, %struct.anon.8, i8, [16 x %struct.anon.9], i8 }>
%struct.anon.7 = type { i16 }
%struct.anon.8 = type { i32 }
%struct.anon.9 = type { i8, i8, i8 }
%struct.SingleChannelElement = type { %struct.IndividualChannelStream, %struct.AACUsacElemData, %struct.TemporalNoiseShaping, [128 x i32], [128 x i32], %union.anon.15, [12 x i8], %union.anon.16, %union.anon.17, %union.anon.18, %union.anon.19, %union.anon.20, %union.anon.21, %union.anon.22 }
%struct.IndividualChannelStream = type { i8, [2 x i32], [2 x i8], i32, i32, [8 x i8], %struct.LongTermPrediction, ptr, i32, i32, i32, i32, i32, i32, [41 x i8], [8 x i8] }
%struct.LongTermPrediction = type { i8, i16, %union.anon.10, [40 x i8] }
%union.anon.10 = type { i32 }
%struct.AACUsacElemData = type { i8, i8, i8, [16 x i8], %struct.anon.11, %struct.anon.12, %struct.anon.13, %struct.AACArithState }
%struct.anon.11 = type { i16, i32 }
%struct.anon.12 = type { i32, i8 }
%struct.anon.13 = type { i8, [8 x [8 x i32]] }
%struct.AACArithState = type { [513 x i8], i32, [4 x i8], i16 }
%struct.TemporalNoiseShaping = type { i32, [8 x i32], [8 x [4 x i32]], [8 x [4 x i32]], [8 x [4 x i32]], %union.anon.14 }
%union.anon.14 = type { [8 x [4 x [20 x i32]]] }
%union.anon.15 = type { [128 x i32] }
%union.anon.16 = type { [1024 x i32] }
%union.anon.17 = type { [1024 x i32] }
%union.anon.18 = type { [1536 x i32] }
%union.anon.19 = type { [2048 x i32] }
%union.anon.20 = type { [3072 x i32] }
%union.anon.21 = type { ptr }
%union.anon.22 = type { ptr }
%struct.ChannelElement = type { i32, i8, [128 x i8], [11 x i8], [2 x %struct.SingleChannelElement], %struct.ChannelCoupling, [8 x i8], %struct.AACUsacStereo }
%struct.ChannelCoupling = type { i32, i32, [8 x i32], [8 x i32], [8 x i32], %union.anon.23 }
%union.anon.23 = type { [16 x [120 x i32]] }
%struct.AACUsacStereo = type { i8, i8, i8, i8, i8, i8, i8, i8, [128 x i8], [8 x i8], %union.anon.24, %union.anon.25, %union.anon.26, %union.anon.27, %union.anon.28, %union.anon.29, %union.anon.30 }
%union.anon.24 = type { [1024 x i32] }
%union.anon.25 = type { [1024 x i32] }
%union.anon.26 = type { [1024 x i32] }
%union.anon.27 = type { [1024 x i32] }
%union.anon.28 = type { [1024 x i32] }
%union.anon.29 = type { [1024 x i32] }
%union.anon.30 = type { [1024 x i32] }

@cce_scale_fixed = internal constant [8 x i32] [i32 1073741824, i32 1170923762, i32 1276901417, i32 1392470869, i32 1518500250, i32 1655936265, i32 1805811301, i32 1969251188], align 16

; Function Attrs: nounwind uwtable
define internal void @apply_independent_coupling_fixed(ptr noundef %0, ptr noundef %1, ptr noundef %2, i32 noundef %3) #3 {
  %5 = alloca ptr, align 8
  %6 = alloca ptr, align 8
  %7 = alloca ptr, align 8
  %8 = alloca i32, align 4
  %9 = alloca i32, align 4
  %10 = alloca i32, align 4
  %11 = alloca i32, align 4
  %12 = alloca i32, align 4
  %13 = alloca i32, align 4
  %14 = alloca i32, align 4
  %15 = alloca ptr, align 8
  %16 = alloca ptr, align 8
  %17 = alloca i32, align 4
  %18 = alloca i32, align 4
  store ptr %0, ptr %5, align 8, !tbaa !29
  store ptr %1, ptr %6, align 8, !tbaa !66
  store ptr %2, ptr %7, align 8, !tbaa !80
  store i32 %3, ptr %8, align 4, !tbaa !71
  call void @llvm.lifetime.start.p0(i64 4, ptr %9) #13
  call void @llvm.lifetime.start.p0(i64 4, ptr %10) #13
  call void @llvm.lifetime.start.p0(i64 4, ptr %11) #13
  call void @llvm.lifetime.start.p0(i64 4, ptr %12) #13
  call void @llvm.lifetime.start.p0(i64 4, ptr %13) #13
  call void @llvm.lifetime.start.p0(i64 4, ptr %14) #13
  %19 = load ptr, ptr %7, align 8, !tbaa !80
  %20 = getelementptr inbounds nuw %struct.ChannelElement, ptr %19, i32 0, i32 5
  %21 = getelementptr inbounds nuw %struct.ChannelCoupling, ptr %20, i32 0, i32 5
  %22 = load i32, ptr %8, align 4, !tbaa !71
  %23 = sext i32 %22 to i64
  %24 = getelementptr inbounds [16 x [120 x float]], ptr %21, i64 0, i64 %23
  %25 = getelementptr inbounds [120 x float], ptr %24, i64 0, i64 0
  %26 = load float, ptr %25, align 8, !tbaa !40
  %27 = fptosi float %26 to i32
  store i32 %27, ptr %14, align 4, !tbaa !71
  call void @llvm.lifetime.start.p0(i64 8, ptr %15) #13
  %28 = load ptr, ptr %7, align 8, !tbaa !80
  %29 = getelementptr inbounds nuw %struct.ChannelElement, ptr %28, i32 0, i32 4
  %30 = getelementptr inbounds [2 x %struct.SingleChannelElement], ptr %29, i64 0, i64 0
  %31 = getelementptr inbounds nuw %struct.SingleChannelElement, ptr %30, i32 0, i32 13
  %32 = load ptr, ptr %31, align 8, !tbaa !40
  store ptr %32, ptr %15, align 8, !tbaa !70
  call void @llvm.lifetime.start.p0(i64 8, ptr %16) #13
  %33 = load ptr, ptr %6, align 8, !tbaa !66
  %34 = getelementptr inbounds nuw %struct.SingleChannelElement, ptr %33, i32 0, i32 13
  %35 = load ptr, ptr %34, align 8, !tbaa !40
  store ptr %35, ptr %16, align 8, !tbaa !70
  call void @llvm.lifetime.start.p0(i64 4, ptr %17) #13
  %36 = load ptr, ptr %5, align 8, !tbaa !29
  %37 = getelementptr inbounds nuw %struct.AACDecContext, ptr %36, i32 0, i32 38
  %38 = getelementptr inbounds [2 x %struct.OutputConfiguration], ptr %37, i64 0, i64 1
  %39 = getelementptr inbounds nuw %struct.OutputConfiguration, ptr %38, i32 0, i32 0
  %40 = getelementptr inbounds nuw %struct.MPEG4AudioConfig, ptr %39, i32 0, i32 4
  %41 = load i32, ptr %40, align 8, !tbaa !174
  %42 = icmp eq i32 %41, 1
  %43 = zext i1 %42 to i32
  %44 = shl i32 1024, %43
  store i32 %44, ptr %17, align 4, !tbaa !71
  %45 = load i32, ptr %14, align 4, !tbaa !71
  %46 = and i32 %45, 7
  %47 = sext i32 %46 to i64
  %48 = getelementptr inbounds [8 x i32], ptr @cce_scale_fixed, i64 0, i64 %47
  %49 = load i32, ptr %48, align 4, !tbaa !71
  store i32 %49, ptr %10, align 4, !tbaa !71
  %50 = load i32, ptr %14, align 4, !tbaa !71
  %51 = sub nsw i32 %50, 1024
  %52 = ashr i32 %51, 3
  store i32 %52, ptr %11, align 4, !tbaa !71
  %53 = load i32, ptr %11, align 4, !tbaa !71
  %54 = icmp slt i32 %53, -31
  br i1 %54, label %55, label %56

55:                                               ; preds = %4
  store i32 1, ptr %18, align 4
  br label %131

56:                                               ; preds = %4
  %57 = load i32, ptr %11, align 4, !tbaa !71
  %58 = icmp slt i32 %57, 0
  br i1 %58, label %59, label %97

59:                                               ; preds = %56
  %60 = load i32, ptr %11, align 4, !tbaa !71
  %61 = sub nsw i32 0, %60
  store i32 %61, ptr %11, align 4, !tbaa !71
  %62 = load i32, ptr %11, align 4, !tbaa !71
  %63 = sub nsw i32 %62, 1
  %64 = shl i32 1, %63
  store i32 %64, ptr %12, align 4, !tbaa !71
  store i32 0, ptr %9, align 4, !tbaa !71
  br label %65

65:                                               ; preds = %93, %59
  %66 = load i32, ptr %9, align 4, !tbaa !71
  %67 = load i32, ptr %17, align 4, !tbaa !71
  %68 = icmp slt i32 %66, %67
  br i1 %68, label %69, label %96

69:                                               ; preds = %65
  %70 = load ptr, ptr %15, align 8, !tbaa !70
  %71 = load i32, ptr %9, align 4, !tbaa !71
  %72 = sext i32 %71 to i64
  %73 = getelementptr inbounds i32, ptr %70, i64 %72
  %74 = load i32, ptr %73, align 4, !tbaa !71
  %75 = sext i32 %74 to i64
  %76 = load i32, ptr %10, align 4, !tbaa !71
  %77 = sext i32 %76 to i64
  %78 = mul nsw i64 %75, %77
  %79 = add nsw i64 %78, 68719476736
  %80 = ashr i64 %79, 37
  %81 = trunc i64 %80 to i32
  store i32 %81, ptr %13, align 4, !tbaa !71
  %82 = load i32, ptr %13, align 4, !tbaa !71
  %83 = load i32, ptr %12, align 4, !tbaa !71
  %84 = add nsw i32 %82, %83
  %85 = load i32, ptr %11, align 4, !tbaa !71
  %86 = ashr i32 %84, %85
  %87 = load ptr, ptr %16, align 8, !tbaa !70
  %88 = load i32, ptr %9, align 4, !tbaa !71
  %89 = sext i32 %88 to i64
  %90 = getelementptr inbounds i32, ptr %87, i64 %89
  %91 = load i32, ptr %90, align 4, !tbaa !71
  %92 = add i32 %91, %86
  store i32 %92, ptr %90, align 4, !tbaa !71
  br label %93

93:                                               ; preds = %69
  %94 = load i32, ptr %9, align 4, !tbaa !71
  %95 = add nsw i32 %94, 1
  store i32 %95, ptr %9, align 4, !tbaa !71
  br label %65, !llvm.loop !175

96:                                               ; preds = %65
  br label %129

97:                                               ; preds = %56
  store i32 0, ptr %9, align 4, !tbaa !71
  br label %98

98:                                               ; preds = %125, %97
  %99 = load i32, ptr %9, align 4, !tbaa !71
  %100 = load i32, ptr %17, align 4, !tbaa !71
  %101 = icmp slt i32 %99, %100
  br i1 %101, label %102, label %128

102:                                              ; preds = %98
  %103 = load ptr, ptr %15, align 8, !tbaa !70
  %104 = load i32, ptr %9, align 4, !tbaa !71
  %105 = sext i32 %104 to i64
  %106 = getelementptr inbounds i32, ptr %103, i64 %105
  %107 = load i32, ptr %106, align 4, !tbaa !71
  %108 = sext i32 %107 to i64
  %109 = load i32, ptr %10, align 4, !tbaa !71
  %110 = sext i32 %109 to i64
  %111 = mul nsw i64 %108, %110
  %112 = add nsw i64 %111, 68719476736
  %113 = ashr i64 %112, 37
  %114 = trunc i64 %113 to i32
  store i32 %114, ptr %13, align 4, !tbaa !71
  %115 = load i32, ptr %13, align 4, !tbaa !71
  %116 = load i32, ptr %11, align 4, !tbaa !71
  %117 = shl i32 1, %116
  %118 = mul i32 %115, %117
  %119 = load ptr, ptr %16, align 8, !tbaa !70
  %120 = load i32, ptr %9, align 4, !tbaa !71
  %121 = sext i32 %120 to i64
  %122 = getelementptr inbounds i32, ptr %119, i64 %121
  %123 = load i32, ptr %122, align 4, !tbaa !71
  %124 = add i32 %123, %118
  store i32 %124, ptr %122, align 4, !tbaa !71
  br label %125

125:                                              ; preds = %102
  %126 = load i32, ptr %9, align 4, !tbaa !71
  %127 = add nsw i32 %126, 1
  store i32 %127, ptr %9, align 4, !tbaa !71
  br label %98, !llvm.loop !176

128:                                              ; preds = %98
  br label %129

129:                                              ; preds = %128, %96
  br label %130

130:                                              ; preds = %129
  store i32 0, ptr %18, align 4
  br label %131

131:                                              ; preds = %130, %55
  call void @llvm.lifetime.end.p0(i64 4, ptr %17) #13
  call void @llvm.lifetime.end.p0(i64 8, ptr %16) #13
  call void @llvm.lifetime.end.p0(i64 8, ptr %15) #13
  call void @llvm.lifetime.end.p0(i64 4, ptr %14) #13
  call void @llvm.lifetime.end.p0(i64 4, ptr %13) #13
  call void @llvm.lifetime.end.p0(i64 4, ptr %12) #13
  call void @llvm.lifetime.end.p0(i64 4, ptr %11) #13
  call void @llvm.lifetime.end.p0(i64 4, ptr %10) #13
  call void @llvm.lifetime.end.p0(i64 4, ptr %9) #13
  %132 = load i32, ptr %18, align 4
  switch i32 %132, label %134 [
    i32 0, label %133
    i32 1, label %133
  ]

133:                                              ; preds = %131, %131
  ret void

134:                                              ; preds = %131
  unreachable
}