; Function Attrs: nofree norecurse nosync nounwind memory(readwrite, inaccessiblemem: none) uwtable
define internal void @apply_independent_coupling_fixed(ptr noundef readonly captures(none) %0, ptr noundef readonly captures(none) %1, ptr noundef readonly captures(none) %2, i32 noundef %3) #7 {
  %5 = getelementptr inbounds nuw i8, ptr %2, i64 80952
  %6 = sext i32 %3 to i64
  %7 = getelementptr inbounds [16 x [120 x float]], ptr %5, i64 0, i64 %6
  %8 = load float, ptr %7, align 8, !tbaa !58
  %9 = fptosi float %8 to i32
  %10 = getelementptr inbounds nuw i8, ptr %2, i64 40488
  %11 = load ptr, ptr %10, align 8, !tbaa !58
  %12 = getelementptr inbounds nuw i8, ptr %1, i64 40344
  %13 = load ptr, ptr %12, align 8, !tbaa !58
  %14 = getelementptr inbounds nuw i8, ptr %0, i64 22488
  %15 = load i32, ptr %14, align 8, !tbaa !171
  %16 = icmp eq i32 %15, 1
  %17 = zext i1 %16 to i32
  %18 = shl nuw nsw i32 1024, %17
  %19 = and i32 %9, 7
  %20 = zext nneg i32 %19 to i64
  %21 = getelementptr inbounds nuw [8 x i32], ptr @cce_scale_fixed, i64 0, i64 %20
  %22 = load i32, ptr %21, align 4, !tbaa !64
  %23 = add nsw i32 %9, -1024
  %24 = ashr i32 %23, 3
  %25 = icmp slt i32 %24, -31
  br i1 %25, label %.loopexit, label %26

26:                                               ; preds = %4
  %27 = icmp slt i32 %24, 0
  br i1 %27, label %29, label %.preheader

.preheader:                                       ; preds = %26
  %28 = sext i32 %22 to i64
  %wide.trip.count = zext nneg i32 %18 to i64
  br label %47

29:                                               ; preds = %26
  %30 = sub nsw i32 0, %24
  %31 = xor i32 %24, -1
  %32 = shl nuw nsw i32 1, %31
  %33 = sext i32 %22 to i64
  %wide.trip.count41 = zext nneg i32 %18 to i64
  br label %34

34:                                               ; preds = %29, %34
  %indvars.iv37 = phi i64 [ 0, %29 ], [ %indvars.iv.next38, %34 ]
  %35 = getelementptr inbounds nuw i32, ptr %11, i64 %indvars.iv37
  %36 = load i32, ptr %35, align 4, !tbaa !64
  %37 = sext i32 %36 to i64
  %38 = mul nsw i64 %37, %33
  %39 = add nsw i64 %38, 68719476736
  %40 = ashr i64 %39, 37
  %41 = trunc nsw i64 %40 to i32
  %42 = add nsw i32 %32, %41
  %43 = ashr i32 %42, %30
  %44 = getelementptr inbounds nuw i32, ptr %13, i64 %indvars.iv37
  %45 = load i32, ptr %44, align 4, !tbaa !64
  %46 = add i32 %43, %45
  store i32 %46, ptr %44, align 4, !tbaa !64
  %indvars.iv.next38 = add nuw nsw i64 %indvars.iv37, 1
  %exitcond42.not = icmp eq i64 %indvars.iv.next38, %wide.trip.count41
  br i1 %exitcond42.not, label %.loopexit, label %34, !llvm.loop !172

47:                                               ; preds = %.preheader, %47
  %indvars.iv = phi i64 [ 0, %.preheader ], [ %indvars.iv.next, %47 ]
  %48 = getelementptr inbounds nuw i32, ptr %11, i64 %indvars.iv
  %49 = load i32, ptr %48, align 4, !tbaa !64
  %50 = sext i32 %49 to i64
  %51 = mul nsw i64 %50, %28
  %52 = add nsw i64 %51, 68719476736
  %53 = ashr i64 %52, 37
  %54 = trunc nsw i64 %53 to i32
  %55 = shl i32 %54, %24
  %56 = getelementptr inbounds nuw i32, ptr %13, i64 %indvars.iv
  %57 = load i32, ptr %56, align 4, !tbaa !64
  %58 = add i32 %55, %57
  store i32 %58, ptr %56, align 4, !tbaa !64
  %indvars.iv.next = add nuw nsw i64 %indvars.iv, 1
  %exitcond.not = icmp eq i64 %indvars.iv.next, %wide.trip.count
  br i1 %exitcond.not, label %.loopexit, label %47, !llvm.loop !173

.loopexit:                                        ; preds = %47, %34, %4
  ret void
}